; Function Attrs: nounwind uwtable
define dso_local void @slurmdb_init_federation_cond(ptr noundef captures(address_is_null) %0, i1 noundef zeroext %1) local_unnamed_addr #0 {
  %.not = icmp eq ptr %0, null
  br i1 %.not, label %11, label %3

3:                                                ; preds = %2
  br i1 %1, label %4, label %_free_federation_cond_members.exit

4:                                                ; preds = %3
  %5 = load ptr, ptr %0, align 8
  %.not.i = icmp eq ptr %5, null
  br i1 %.not.i, label %7, label %6

6:                                                ; preds = %4
  tail call void @list_destroy(ptr noundef nonnull %5) #19
  br label %7

7:                                                ; preds = %6, %4
  store ptr null, ptr %0, align 8
  %8 = getelementptr inbounds nuw i8, ptr %0, i64 8
  %9 = load ptr, ptr %8, align 8
  %.not9.i = icmp eq ptr %9, null
  br i1 %.not9.i, label %_free_federation_cond_members.exit, label %10

10:                                               ; preds = %7
  tail call void @list_destroy(ptr noundef nonnull %9) #19
  br label %_free_federation_cond_members.exit

_free_federation_cond_members.exit:               ; preds = %10, %7, %3
  tail call void @llvm.memset.p0.i64(ptr noundef nonnull align 8 dereferenceable(32) %0, i8 0, i64 32, i1 false)
  br label %11

11:                                               ; preds = %2, %_free_federation_cond_members.exit
  ret void
}